; Function Attrs: mustprogress nounwind uwtable
define internal fastcc void @_ZNK9grpc_core11UnrefDeleteclIKNS_12_GLOBAL__N_118OutlierDetectionLb15SubchannelStateEEEvPT_(ptr noundef nonnull %0) unnamed_addr #5 align 2 personality ptr @__gxx_personality_v0 {
  %2 = getelementptr inbounds nuw i8, ptr %0, i64 72
  %.val.i = load ptr, ptr %2, align 8, !tbaa !207
  %.not.i.i = icmp eq ptr %.val.i, null
  br i1 %.not.i.i, label %_ZN9grpc_core12_GLOBAL__N_118OutlierDetectionLb15SubchannelStateD2Ev.exit, label %3

3:                                                ; preds = %1
  %4 = getelementptr inbounds nuw i8, ptr %.val.i, i64 8
  %5 = atomicrmw sub ptr %4, i64 1 acq_rel, align 8
  %6 = icmp eq i64 %5, 1
  br i1 %6, label %7, label %_ZN9grpc_core12_GLOBAL__N_118OutlierDetectionLb15SubchannelStateD2Ev.exit, !prof !99

7:                                                ; preds = %3
  tail call fastcc void @_ZNK9grpc_core11UnrefDeleteclIKNS_12_GLOBAL__N_118OutlierDetectionLb13EndpointStateEEEvPT_(ptr noundef nonnull align 8 dereferenceable(16) %.val.i)
  br label %_ZN9grpc_core12_GLOBAL__N_118OutlierDetectionLb15SubchannelStateD2Ev.exit

_ZN9grpc_core12_GLOBAL__N_118OutlierDetectionLb15SubchannelStateD2Ev.exit: ; preds = %1, %3, %7
  %8 = getelementptr inbounds nuw i8, ptr %0, i64 32
  %.val1.i = load ptr, ptr %8, align 8, !tbaa !37
  tail call fastcc void @_ZNSt8_Rb_treeIPN9grpc_core12_GLOBAL__N_118OutlierDetectionLb17SubchannelWrapperES4_St9_IdentityIS4_ESt4lessIS4_ESaIS4_EE8_M_eraseEPSt13_Rb_tree_nodeIS4_E(ptr noundef %.val1.i)
  tail call void @_ZdlPvm(ptr noundef nonnull %0, i64 noundef 80) #40
  ret void
}